(lp0
S'poi'
p1
aS'salary'
p2
aS'total_payments'
p3
aS'exercised_stock_options'
p4
aS'bonus'
p5
aS'restricted_stock'
p6
aS'shared_receipt_with_poi'
p7
aS'restricted_stock_deferred'
p8
aS'total_stock_value'
p9
aS'expenses'
p10
aS'loan_advances'
p11
aS'from_this_person_to_poi'
p12
aS'from_poi_to_this_person'
p13
aS'director_fees'
p14
aS'deferred_income'
p15
aS'long_term_incentive'
p16
a.