ccopy_reg
_reconstructor
p0
(csklearn.pipeline
Pipeline
p1
c__builtin__
object
p2
Ntp3
Rp4
(dp5
S'steps'
p6
(lp7
(S'reduce_dim'
p8
g0
(csklearn.decomposition.pca
PCA
p9
g2
Ntp10
Rp11
(dp12
S'copy'
p13
I01
sS'n_components'
p14
I3
sS'whiten'
p15
I00
sbtp16
a(S'SVM'
p17
g0
(csklearn.svm.classes
SVC
p18
g2
Ntp19
Rp20
(dp21
S'_impl'
p22
S'c_svc'
p23
sS'kernel'
p24
S'poly'
p25
sS'C'
p26
F1.0
sS'verbose'
p27
I00
sS'probability'
p28
I00
sS'degree'
p29
I3
sS'epsilon'
p30
F0.0
sS'shrinking'
p31
I01
sS'max_iter'
p32
I-1
sS'decision_function_shape'
p33
NsS'random_state'
p34
NsS'tol'
p35
F0.001
sS'cache_size'
p36
I200
sS'coef0'
p37
F0.0
sS'nu'
p38
F0.0
sS'gamma'
p39
S'auto'
p40
sS'class_weight'
p41
Nsbtp42
asb.